; Function Attrs: mustprogress uwtable
define noundef range(i32 -2147483648, 2147483647) i32 @_ZNK6icu_776NFRule15findTextLenientERKNS_13UnicodeStringES3_iPi(ptr noundef nonnull readonly align 8 captures(none) dereferenceable(112) %0, ptr noundef nonnull align 8 dereferenceable(64) %1, ptr noundef nonnull align 8 dereferenceable(64) %2, i32 noundef %3, ptr noundef writeonly captures(none) %4) local_unnamed_addr #0 align 2 personality ptr @__gxx_personality_v0 {
  %6 = alloca %"class.icu_77::UnicodeString", align 8
  %7 = alloca i32, align 4
  call void @llvm.lifetime.start.p0(i64 64, ptr nonnull %6) #9
  store ptr getelementptr inbounds nuw inrange(-16, 88) (i8, ptr @_ZTVN6icu_7713UnicodeStringE, i64 16), ptr %6, align 8, !tbaa !24
  %8 = getelementptr inbounds nuw i8, ptr %6, i64 8
  store i16 2, ptr %8, align 8, !tbaa !23
  call void @llvm.lifetime.start.p0(i64 4, ptr nonnull %7) #9
  store i32 0, ptr %7, align 4, !tbaa !31
  %9 = getelementptr inbounds nuw i8, ptr %1, i64 8
  %10 = getelementptr inbounds nuw i8, ptr %1, i64 12
  %11 = load i16, ptr %9, align 8, !tbaa !23
  %12 = icmp slt i16 %11, 0
  %13 = ashr i16 %11, 5
  %14 = sext i16 %13 to i32
  %15 = load i32, ptr %10, align 4
  %16 = select i1 %12, i32 %15, i32 %14
  %17 = icmp slt i32 %3, %16
  br i1 %17, label %.lr.ph, label %._crit_edge

.lr.ph:                                           ; preds = %5
  %18 = getelementptr inbounds nuw i8, ptr %6, i64 12
  br label %19

19:                                               ; preds = %.lr.ph, %36
  %20 = phi i32 [ %16, %.lr.ph ], [ %43, %36 ]
  %.01823 = phi i32 [ %3, %.lr.ph ], [ %37, %36 ]
  invoke void @_ZN6icu_7713UnicodeString7unBogusEv(ptr noundef nonnull align 8 dereferenceable(64) %6)
          to label %.noexc unwind label %33

.noexc:                                           ; preds = %19
  %21 = sub nsw i32 %20, %.01823
  %22 = load i16, ptr %8, align 8, !tbaa !23
  %23 = icmp slt i16 %22, 0
  %24 = ashr i16 %22, 5
  %25 = sext i16 %24 to i32
  %26 = load i32, ptr %18, align 4
  %27 = select i1 %23, i32 %26, i32 %25
  %28 = invoke noundef nonnull align 8 dereferenceable(64) ptr @_ZN6icu_7713UnicodeString9doReplaceEiiRKS0_ii(ptr noundef nonnull align 8 dereferenceable(64) %6, i32 noundef 0, i32 noundef %27, ptr noundef nonnull align 8 dereferenceable(64) %1, i32 noundef %.01823, i32 noundef %21)
          to label %_ZN6icu_7713UnicodeString5setToERKS0_ii.exit unwind label %33

_ZN6icu_7713UnicodeString5setToERKS0_ii.exit:     ; preds = %.noexc
  %29 = invoke noundef i32 @_ZNK6icu_776NFRule12prefixLengthERKNS_13UnicodeStringES3_R10UErrorCode(ptr noundef nonnull align 8 dereferenceable(112) %0, ptr noundef nonnull align 8 dereferenceable(64) %6, ptr noundef nonnull align 8 dereferenceable(64) %2, ptr noundef nonnull align 4 dereferenceable(4) %7)
          to label %30 unwind label %33

30:                                               ; preds = %_ZN6icu_7713UnicodeString5setToERKS0_ii.exit
  %31 = load i32, ptr %7, align 4, !tbaa !31
  %32 = icmp slt i32 %31, 1
  br i1 %32, label %35, label %._crit_edge

33:                                               ; preds = %.noexc, %19, %_ZN6icu_7713UnicodeString5setToERKS0_ii.exit
  %34 = landingpad { ptr, i32 }
          cleanup
  call void @llvm.lifetime.end.p0(i64 4, ptr nonnull %7) #9
  call void @_ZN6icu_7713UnicodeStringD1Ev(ptr noundef nonnull align 8 dereferenceable(64) %6) #9
  call void @llvm.lifetime.end.p0(i64 64, ptr nonnull %6) #9
  resume { ptr, i32 } %34

35:                                               ; preds = %30
  %.not21 = icmp eq i32 %29, 0
  br i1 %.not21, label %36, label %._crit_edge

36:                                               ; preds = %35
  %37 = add nsw i32 %.01823, 1
  %38 = load i16, ptr %9, align 8, !tbaa !23
  %39 = icmp slt i16 %38, 0
  %40 = ashr i16 %38, 5
  %41 = sext i16 %40 to i32
  %42 = load i32, ptr %10, align 4
  %43 = select i1 %39, i32 %42, i32 %41
  %44 = icmp slt i32 %37, %43
  br i1 %44, label %19, label %._crit_edge, !llvm.loop !74

._crit_edge:                                      ; preds = %35, %30, %36, %5
  %storemerge = phi i32 [ 0, %5 ], [ 0, %36 ], [ 0, %30 ], [ %29, %35 ]
  %.0 = phi i32 [ -1, %5 ], [ -1, %36 ], [ -1, %30 ], [ %.01823, %35 ]
  store i32 %storemerge, ptr %4, align 4, !tbaa !61
  call void @llvm.lifetime.end.p0(i64 4, ptr nonnull %7) #9
  call void @_ZN6icu_7713UnicodeStringD1Ev(ptr noundef nonnull align 8 dereferenceable(64) %6) #9
  call void @llvm.lifetime.end.p0(i64 64, ptr nonnull %6) #9
  ret i32 %.0
}